; Function Attrs: nounwind uwtable
define internal ptr @getargs_D(ptr readnone captures(none) %0, ptr noundef %1) #0 {
  %3 = alloca %struct.Py_complex, align 8
  call void @llvm.lifetime.start.p0(i64 16, ptr nonnull %3) #7
  %4 = call i32 (ptr, ptr, ...) @PyArg_ParseTuple(ptr noundef %1, ptr noundef nonnull @.str.48, ptr noundef nonnull %3) #7
  %.not = icmp eq i32 %4, 0
  br i1 %.not, label %10, label %5

5:                                                ; preds = %2
  %6 = load double, ptr %3, align 8
  %7 = getelementptr inbounds nuw i8, ptr %3, i64 8
  %8 = load double, ptr %7, align 8
  %9 = call ptr @PyComplex_FromCComplex(double %6, double %8) #7
  br label %10

10:                                               ; preds = %2, %5
  %.0 = phi ptr [ %9, %5 ], [ null, %2 ]
  call void @llvm.lifetime.end.p0(i64 16, ptr nonnull %3) #7
  ret ptr %.0
}